; ModuleID = '17/1330.c'
source_filename = "17/1330.c"
target datalayout = "e-m:e-p270:32:32-p271:32:32-p272:64:64-i64:64-f80:128-n8:16:32:64-S128"
target triple = "x86_64-pc-linux-gnu"

@.str = private unnamed_addr constant [3 x i8] c"%s\00", align 1

; Function Attrs: noinline nounwind uwtable
define dso_local i32 @DO(i8* %0, i32 %1) #0 {
  %3 = alloca i32, align 4
  %4 = alloca i8*, align 8
  %5 = alloca i32, align 4
  %6 = alloca i32, align 4
  %7 = alloca i8*, align 8
  %8 = alloca i8*, align 8
  %9 = alloca i32, align 4
  store i8* %0, i8** %4, align 8
  store i32 %1, i32* %5, align 4
  store i32 0, i32* %6, align 4
  store i8* null, i8** %7, align 8
  store i8* null, i8** %8, align 8
  store i32 0, i32* %9, align 4
  br label %10

10:                                               ; preds = %53, %2
  %11 = load i32, i32* %9, align 4
  %12 = load i32, i32* %5, align 4
  %13 = icmp slt i32 %11, %12
  br i1 %13, label %14, label %56

14:                                               ; preds = %10
  %15 = load i8*, i8** %4, align 8
  %16 = load i32, i32* %9, align 4
  %17 = sext i32 %16 to i64
  %18 = getelementptr inbounds i8, i8* %15, i64 %17
  %19 = load i8, i8* %18, align 1
  %20 = sext i8 %19 to i32
  %21 = icmp eq i32 %20, 36
  br i1 %21, label %22, label %29

22:                                               ; preds = %14
  %23 = load i32, i32* %6, align 4
  %24 = add nsw i32 %23, 1
  store i32 %24, i32* %6, align 4
  %25 = load i8*, i8** %4, align 8
  %26 = load i32, i32* %9, align 4
  %27 = sext i32 %26 to i64
  %28 = getelementptr inbounds i8, i8* %25, i64 %27
  store i8* %28, i8** %7, align 8
  br label %52

29:                                               ; preds = %14
  %30 = load i8*, i8** %4, align 8
  %31 = load i32, i32* %9, align 4
  %32 = sext i32 %31 to i64
  %33 = getelementptr inbounds i8, i8* %30, i64 %32
  %34 = load i8, i8* %33, align 1
  %35 = sext i8 %34 to i32
  %36 = icmp eq i32 %35, 63
  br i1 %36, label %37, label %51

37:                                               ; preds = %29
  %38 = load i8*, i8** %4, align 8
  %39 = load i32, i32* %9, align 4
  %40 = sext i32 %39 to i64
  %41 = getelementptr inbounds i8, i8* %38, i64 %40
  store i8* %41, i8** %8, align 8
  %42 = load i32, i32* %6, align 4
  %43 = icmp ne i32 %42, 0
  br i1 %43, label %44, label %50

44:                                               ; preds = %37
  %45 = load i8*, i8** %7, align 8
  store i8 32, i8* %45, align 1
  %46 = load i8*, i8** %8, align 8
  store i8 32, i8* %46, align 1
  %47 = load i8*, i8** %4, align 8
  %48 = load i32, i32* %5, align 4
  %49 = call i32 @DO(i8* %47, i32 %48)
  store i32 %49, i32* %3, align 4
  br label %57

50:                                               ; preds = %37
  br label %51

51:                                               ; preds = %50, %29
  br label %52

52:                                               ; preds = %51, %22
  br label %53

53:                                               ; preds = %52
  %54 = load i32, i32* %9, align 4
  %55 = add nsw i32 %54, 1
  store i32 %55, i32* %9, align 4
  br label %10

56:                                               ; preds = %10
  store i32 0, i32* %3, align 4
  br label %57

57:                                               ; preds = %56, %44
  %58 = load i32, i32* %3, align 4
  ret i32 %58
}

; Function Attrs: noinline nounwind uwtable
define dso_local i32 @main() #0 {
  %1 = alloca i32, align 4
  %2 = alloca [101 x i8], align 16
  %3 = alloca i32, align 4
  %4 = alloca i32, align 4
  store i32 0, i32* %1, align 4
  br label %5

5:                                                ; preds = %66, %0
  %6 = getelementptr inbounds [101 x i8], [101 x i8]* %2, i64 0, i64 0
  %7 = call i32 (i8*, ...) @__isoc99_scanf(i8* getelementptr inbounds ([3 x i8], [3 x i8]* @.str, i64 0, i64 0), i8* %6)
  %8 = xor i32 %7, -1
  %9 = icmp ne i32 %8, 0
  br i1 %9, label %10, label %72

10:                                               ; preds = %5
  %11 = getelementptr inbounds [101 x i8], [101 x i8]* %2, i64 0, i64 0
  %12 = call i32 @puts(i8* %11)
  %13 = getelementptr inbounds [101 x i8], [101 x i8]* %2, i64 0, i64 0
  %14 = call i64 @strlen(i8* %13) #3
  %15 = trunc i64 %14 to i32
  store i32 %15, i32* %3, align 4
  store i32 0, i32* %4, align 4
  br label %16

16:                                               ; preds = %63, %10
  %17 = load i32, i32* %4, align 4
  %18 = load i32, i32* %3, align 4
  %19 = icmp slt i32 %17, %18
  br i1 %19, label %20, label %66

20:                                               ; preds = %16
  %21 = load i32, i32* %4, align 4
  %22 = sext i32 %21 to i64
  %23 = getelementptr inbounds [101 x i8], [101 x i8]* %2, i64 0, i64 %22
  %24 = load i8, i8* %23, align 1
  %25 = sext i8 %24 to i32
  %26 = icmp ne i32 %25, 40
  br i1 %26, label %27, label %38

27:                                               ; preds = %20
  %28 = load i32, i32* %4, align 4
  %29 = sext i32 %28 to i64
  %30 = getelementptr inbounds [101 x i8], [101 x i8]* %2, i64 0, i64 %29
  %31 = load i8, i8* %30, align 1
  %32 = sext i8 %31 to i32
  %33 = icmp ne i32 %32, 41
  br i1 %33, label %34, label %38

34:                                               ; preds = %27
  %35 = load i32, i32* %4, align 4
  %36 = sext i32 %35 to i64
  %37 = getelementptr inbounds [101 x i8], [101 x i8]* %2, i64 0, i64 %36
  store i8 32, i8* %37, align 1
  br label %62

38:                                               ; preds = %27, %20
  %39 = load i32, i32* %4, align 4
  %40 = sext i32 %39 to i64
  %41 = getelementptr inbounds [101 x i8], [101 x i8]* %2, i64 0, i64 %40
  %42 = load i8, i8* %41, align 1
  %43 = sext i8 %42 to i32
  %44 = icmp eq i32 %43, 40
  br i1 %44, label %45, label %49

45:                                               ; preds = %38
  %46 = load i32, i32* %4, align 4
  %47 = sext i32 %46 to i64
  %48 = getelementptr inbounds [101 x i8], [101 x i8]* %2, i64 0, i64 %47
  store i8 36, i8* %48, align 1
  br label %61

49:                                               ; preds = %38
  %50 = load i32, i32* %4, align 4
  %51 = sext i32 %50 to i64
  %52 = getelementptr inbounds [101 x i8], [101 x i8]* %2, i64 0, i64 %51
  %53 = load i8, i8* %52, align 1
  %54 = sext i8 %53 to i32
  %55 = icmp eq i32 %54, 41
  br i1 %55, label %56, label %60

56:                                               ; preds = %49
  %57 = load i32, i32* %4, align 4
  %58 = sext i32 %57 to i64
  %59 = getelementptr inbounds [101 x i8], [101 x i8]* %2, i64 0, i64 %58
  store i8 63, i8* %59, align 1
  br label %60

60:                                               ; preds = %56, %49
  br label %61

61:                                               ; preds = %60, %45
  br label %62

62:                                               ; preds = %61, %34
  br label %63

63:                                               ; preds = %62
  %64 = load i32, i32* %4, align 4
  %65 = add nsw i32 %64, 1
  store i32 %65, i32* %4, align 4
  br label %16

66:                                               ; preds = %16
  %67 = getelementptr inbounds [101 x i8], [101 x i8]* %2, i64 0, i64 0
  %68 = load i32, i32* %3, align 4
  %69 = call i32 @DO(i8* %67, i32 %68)
  %70 = getelementptr inbounds [101 x i8], [101 x i8]* %2, i64 0, i64 0
  %71 = call i32 @puts(i8* %70)
  br label %5

72:                                               ; preds = %5
  ret i32 0
}

declare dso_local i32 @__isoc99_scanf(i8*, ...) #1

declare dso_local i32 @puts(i8*) #1

; Function Attrs: nounwind readonly
declare dso_local i64 @strlen(i8*) #2


!llvm.module.flags = !{!0}
!llvm.ident = !{!1}

!0 = !{i32 1, !"wchar_size", i32 4}
!1 = !{!"clang version 10.0.0-4ubuntu1 "}
